target datalayout = "e-m:e-p270:32:32-p271:32:32-p272:64:64-i64:64-i128:128-f80:128-n8:16:32:64-S128"
target triple = "x86_64-pc-linux-gnu"

%struct.ident_t = type { i32, i32, i32, i32, ptr }
%"struct.OpenSubdiv::v3_6_0::Osd::BufferDescriptor" = type { i32, i32, i32 }
%"struct.OpenSubdiv::v3_6_0::Osd::BufferAdapter" = type { ptr, i32, i32 }

@2 = private unnamed_addr constant %struct.ident_t { i32 0, i32 2, i32 0, i32 22, ptr @0 }, align 8

; Function Attrs: mustprogress nounwind uwtable
define linkonce_odr void @_ZN10OpenSubdiv6v3_6_03Osd13BufferAdapterIKfEC2EPS3_ii(ptr noundef nonnull align 8 dereferenceable(16) %0, ptr noundef %1, i32 noundef %2, i32 noundef %3) unnamed_addr #5 comdat align 2 {
  %5 = alloca ptr, align 8
  %6 = alloca ptr, align 8
  %7 = alloca i32, align 4
  %8 = alloca i32, align 4
  store ptr %0, ptr %5, align 8
  store ptr %1, ptr %6, align 8
  store i32 %2, ptr %7, align 4
  store i32 %3, ptr %8, align 4
  %9 = load ptr, ptr %5, align 8
  %10 = getelementptr inbounds nuw %"struct.OpenSubdiv::v3_6_0::Osd::BufferAdapter", ptr %9, i32 0, i32 0
  %11 = load ptr, ptr %6, align 8
  store ptr %11, ptr %10, align 8
  %12 = getelementptr inbounds nuw %"struct.OpenSubdiv::v3_6_0::Osd::BufferAdapter", ptr %9, i32 0, i32 1
  %13 = load i32, ptr %7, align 4
  store i32 %13, ptr %12, align 8
  %14 = getelementptr inbounds nuw %"struct.OpenSubdiv::v3_6_0::Osd::BufferAdapter", ptr %9, i32 0, i32 2
  %15 = load i32, ptr %8, align 4
  store i32 %15, ptr %14, align 4
  ret void
}

; Function Attrs: mustprogress uwtable
define noundef zeroext i1 @_ZN10OpenSubdiv6v3_6_03Osd12OmpEvaluator11EvalPatchesEPKfRKNS1_16BufferDescriptorEPfS7_iPKNS1_10PatchCoordEPKNS1_10PatchArrayEPKiPKNS1_10PatchParamE(ptr noundef %0, ptr noundef nonnull align 4 dereferenceable(12) %1, ptr noundef %2, ptr noundef nonnull align 4 dereferenceable(12) %3, i32 noundef %4, ptr noundef %5, ptr noundef %6, ptr noundef %7, ptr noundef %8) #4 align 2 {
  %10 = alloca i1, align 1
  %11 = alloca ptr, align 8
  %12 = alloca ptr, align 8
  %13 = alloca ptr, align 8
  %14 = alloca ptr, align 8
  %15 = alloca i32, align 4
  %16 = alloca ptr, align 8
  %17 = alloca ptr, align 8
  %18 = alloca ptr, align 8
  %19 = alloca ptr, align 8
  %20 = alloca %"struct.OpenSubdiv::v3_6_0::Osd::BufferAdapter", align 8
  store ptr %0, ptr %11, align 8
  store ptr %1, ptr %12, align 8
  store ptr %2, ptr %13, align 8
  store ptr %3, ptr %14, align 8
  store i32 %4, ptr %15, align 4
  store ptr %5, ptr %16, align 8
  store ptr %6, ptr %17, align 8
  store ptr %7, ptr %18, align 8
  store ptr %8, ptr %19, align 8
  %21 = load ptr, ptr %12, align 8
  %22 = getelementptr inbounds nuw %"struct.OpenSubdiv::v3_6_0::Osd::BufferDescriptor", ptr %21, i32 0, i32 0
  %23 = load i32, ptr %22, align 4
  %24 = load ptr, ptr %11, align 8
  %25 = sext i32 %23 to i64
  %26 = getelementptr inbounds float, ptr %24, i64 %25
  store ptr %26, ptr %11, align 8
  %27 = load ptr, ptr %13, align 8
  %28 = icmp ne ptr %27, null
  br i1 %28, label %29, label %36

29:                                               ; preds = %9
  %30 = load ptr, ptr %14, align 8
  %31 = getelementptr inbounds nuw %"struct.OpenSubdiv::v3_6_0::Osd::BufferDescriptor", ptr %30, i32 0, i32 0
  %32 = load i32, ptr %31, align 4
  %33 = load ptr, ptr %13, align 8
  %34 = sext i32 %32 to i64
  %35 = getelementptr inbounds float, ptr %33, i64 %34
  store ptr %35, ptr %13, align 8
  br label %37

36:                                               ; preds = %9
  store i1 false, ptr %10, align 1
  br label %46

37:                                               ; preds = %29
  %38 = load ptr, ptr %11, align 8
  %39 = load ptr, ptr %12, align 8
  %40 = getelementptr inbounds nuw %"struct.OpenSubdiv::v3_6_0::Osd::BufferDescriptor", ptr %39, i32 0, i32 1
  %41 = load i32, ptr %40, align 4
  %42 = load ptr, ptr %12, align 8
  %43 = getelementptr inbounds nuw %"struct.OpenSubdiv::v3_6_0::Osd::BufferDescriptor", ptr %42, i32 0, i32 2
  %44 = load i32, ptr %43, align 4
  call void @_ZN10OpenSubdiv6v3_6_03Osd13BufferAdapterIKfEC2EPS3_ii(ptr noundef nonnull align 8 dereferenceable(16) %20, ptr noundef %38, i32 noundef %41, i32 noundef %44)
  %45 = load ptr, ptr %14, align 8
  call void (ptr, i32, ptr, ...) @__kmpc_fork_call(ptr @2, i32 8, ptr @_ZN10OpenSubdiv6v3_6_03Osd12OmpEvaluator11EvalPatchesEPKfRKNS1_16BufferDescriptorEPfS7_iPKNS1_10PatchCoordEPKNS1_10PatchArrayEPKiPKNS1_10PatchParamE.omp_outlined, ptr %15, ptr %13, ptr %45, ptr %16, ptr %17, ptr %19, ptr %18, ptr %20)
  store i1 true, ptr %10, align 1
  br label %46

46:                                               ; preds = %37, %36
  %47 = load i1, ptr %10, align 1
  ret i1 %47
}