; Function Attrs: mustprogress nounwind uwtable
define noundef zeroext i1 @_ZN10OpenSubdiv6v3_6_03Osd12OmpEvaluator11EvalPatchesEPKfRKNS1_16BufferDescriptorEPfS7_iPKNS1_10PatchCoordEPKNS1_10PatchArrayEPKiPKNS1_10PatchParamE(ptr noundef %0, ptr nocapture noundef nonnull readonly align 4 dereferenceable(12) %1, ptr noundef %2, ptr noundef nonnull align 4 dereferenceable(12) %3, i32 noundef %4, ptr noundef %5, ptr noundef %6, ptr noundef %7, ptr noundef %8) local_unnamed_addr #4 align 2 {
  %10 = alloca ptr, align 8
  %11 = alloca i32, align 4
  %12 = alloca ptr, align 8
  %13 = alloca ptr, align 8
  %14 = alloca ptr, align 8
  %15 = alloca ptr, align 8
  %16 = alloca %"struct.OpenSubdiv::v3_6_0::Osd::BufferAdapter", align 8
  store i32 %4, ptr %11, align 4
  store ptr %5, ptr %12, align 8
  store ptr %6, ptr %13, align 8
  store ptr %7, ptr %14, align 8
  store ptr %8, ptr %15, align 8
  %.not = icmp ne ptr %2, null
  br i1 %.not, label %17, label %30

17:                                               ; preds = %9
  %18 = load i32, ptr %1, align 4
  %19 = sext i32 %18 to i64
  %20 = getelementptr inbounds float, ptr %0, i64 %19
  %21 = load i32, ptr %3, align 4
  %22 = sext i32 %21 to i64
  %23 = getelementptr inbounds float, ptr %2, i64 %22
  store ptr %23, ptr %10, align 8
  %24 = getelementptr inbounds nuw i8, ptr %1, i64 4
  %25 = load i32, ptr %24, align 4
  %26 = getelementptr inbounds nuw i8, ptr %1, i64 8
  %27 = load i32, ptr %26, align 4
  store ptr %20, ptr %16, align 8
  %28 = getelementptr inbounds nuw i8, ptr %16, i64 8
  store i32 %25, ptr %28, align 8
  %29 = getelementptr inbounds nuw i8, ptr %16, i64 12
  store i32 %27, ptr %29, align 4
  call void (ptr, i32, ptr, ...) @__kmpc_fork_call(ptr nonnull @2, i32 8, ptr nonnull @_ZN10OpenSubdiv6v3_6_03Osd12OmpEvaluator11EvalPatchesEPKfRKNS1_16BufferDescriptorEPfS7_iPKNS1_10PatchCoordEPKNS1_10PatchArrayEPKiPKNS1_10PatchParamE.omp_outlined, ptr nonnull %11, ptr nonnull %10, ptr nonnull %3, ptr nonnull %12, ptr nonnull %13, ptr nonnull %15, ptr nonnull %14, ptr nonnull %16)
  br label %30

30:                                               ; preds = %9, %17
  ret i1 %.not
}